target datalayout = "e-m:e-p270:32:32-p271:32:32-p272:64:64-i64:64-i128:128-f80:128-n8:16:32:64-S128"
target triple = "x86_64-unknown-linux-gnu"

%struct.X509_pubkey_st = type { ptr, ptr, ptr }
%struct.asn1_string_st = type { i32, i32, ptr, i64 }
%struct.X509_algor_st = type { ptr, ptr }

; Function Attrs: nounwind uwtable
define hidden i32 @X509_PUBKEY_get0_param(ptr noundef %ppkalg, ptr noundef %pk, ptr noundef %ppklen, ptr noundef %pa, ptr noundef %pub) #0 {
entry:
  %ppkalg.addr = alloca ptr, align 8
  %pk.addr = alloca ptr, align 8
  %ppklen.addr = alloca ptr, align 8
  %pa.addr = alloca ptr, align 8
  %pub.addr = alloca ptr, align 8
  store ptr %ppkalg, ptr %ppkalg.addr, align 8
  store ptr %pk, ptr %pk.addr, align 8
  store ptr %ppklen, ptr %ppklen.addr, align 8
  store ptr %pa, ptr %pa.addr, align 8
  store ptr %pub, ptr %pub.addr, align 8
  %0 = load ptr, ptr %ppkalg.addr, align 8
  %tobool = icmp ne ptr %0, null
  br i1 %tobool, label %if.then, label %if.end

if.then:                                          ; preds = %entry
  %1 = load ptr, ptr %pub.addr, align 8
  %algor = getelementptr inbounds %struct.X509_pubkey_st, ptr %1, i32 0, i32 0
  %2 = load ptr, ptr %algor, align 8
  %algorithm = getelementptr inbounds %struct.X509_algor_st, ptr %2, i32 0, i32 0
  %3 = load ptr, ptr %algorithm, align 8
  %4 = load ptr, ptr %ppkalg.addr, align 8
  store ptr %3, ptr %4, align 8
  br label %if.end

if.end:                                           ; preds = %if.then, %entry
  %5 = load ptr, ptr %pk.addr, align 8
  %tobool1 = icmp ne ptr %5, null
  br i1 %tobool1, label %if.then2, label %if.end4

if.then2:                                         ; preds = %if.end
  %6 = load ptr, ptr %pub.addr, align 8
  %public_key = getelementptr inbounds %struct.X509_pubkey_st, ptr %6, i32 0, i32 1
  %7 = load ptr, ptr %public_key, align 8
  %data = getelementptr inbounds %struct.asn1_string_st, ptr %7, i32 0, i32 2
  %8 = load ptr, ptr %data, align 8
  %9 = load ptr, ptr %pk.addr, align 8
  store ptr %8, ptr %9, align 8
  %10 = load ptr, ptr %pub.addr, align 8
  %public_key3 = getelementptr inbounds %struct.X509_pubkey_st, ptr %10, i32 0, i32 1
  %11 = load ptr, ptr %public_key3, align 8
  %length = getelementptr inbounds %struct.asn1_string_st, ptr %11, i32 0, i32 0
  %12 = load i32, ptr %length, align 8
  %13 = load ptr, ptr %ppklen.addr, align 8
  store i32 %12, ptr %13, align 4
  br label %if.end4

if.end4:                                          ; preds = %if.then2, %if.end
  %14 = load ptr, ptr %pa.addr, align 8
  %tobool5 = icmp ne ptr %14, null
  br i1 %tobool5, label %if.then6, label %if.end8

if.then6:                                         ; preds = %if.end4
  %15 = load ptr, ptr %pub.addr, align 8
  %algor7 = getelementptr inbounds %struct.X509_pubkey_st, ptr %15, i32 0, i32 0
  %16 = load ptr, ptr %algor7, align 8
  %17 = load ptr, ptr %pa.addr, align 8
  store ptr %16, ptr %17, align 8
  br label %if.end8

if.end8:                                          ; preds = %if.then6, %if.end4
  ret i32 1
}