; Function Attrs: mustprogress nofree norecurse nosync nounwind willreturn memory(read, argmem: readwrite, inaccessiblemem: none) uwtable
define hidden noundef i32 @X509_PUBKEY_get0_param(ptr noundef writeonly %ppkalg, ptr noundef writeonly %pk, ptr noundef writeonly captures(none) %ppklen, ptr noundef writeonly %pa, ptr noundef readonly captures(none) %pub) local_unnamed_addr #3 {
entry:
  %tobool.not = icmp eq ptr %ppkalg, null
  br i1 %tobool.not, label %if.end, label %if.then

if.then:                                          ; preds = %entry
  %0 = load ptr, ptr %pub, align 8
  %1 = load ptr, ptr %0, align 8
  store ptr %1, ptr %ppkalg, align 8
  br label %if.end

if.end:                                           ; preds = %if.then, %entry
  %tobool1.not = icmp eq ptr %pk, null
  br i1 %tobool1.not, label %if.end4, label %if.then2

if.then2:                                         ; preds = %if.end
  %public_key = getelementptr inbounds nuw i8, ptr %pub, i64 8
  %2 = load ptr, ptr %public_key, align 8
  %data = getelementptr inbounds nuw i8, ptr %2, i64 8
  %3 = load ptr, ptr %data, align 8
  store ptr %3, ptr %pk, align 8
  %4 = load ptr, ptr %public_key, align 8
  %5 = load i32, ptr %4, align 8
  store i32 %5, ptr %ppklen, align 4
  br label %if.end4

if.end4:                                          ; preds = %if.then2, %if.end
  %tobool5.not = icmp eq ptr %pa, null
  br i1 %tobool5.not, label %if.end8, label %if.then6

if.then6:                                         ; preds = %if.end4
  %6 = load ptr, ptr %pub, align 8
  store ptr %6, ptr %pa, align 8
  br label %if.end8

if.end8:                                          ; preds = %if.then6, %if.end4
  ret i32 1
}